; Function Attrs: mustprogress uwtable
define noundef i32 @_ZNK7testing9TestSuite21successful_test_countEv(ptr noundef nonnull readonly align 8 captures(none) dereferenceable(264) %0) local_unnamed_addr #3 align 2 {
  %2 = getelementptr inbounds nuw i8, ptr %0, i64 48
  %3 = load ptr, ptr %2, align 8, !tbaa !791
  %4 = getelementptr inbounds nuw i8, ptr %0, i64 56
  %5 = load ptr, ptr %4, align 8, !tbaa !791
  %.not7.i = icmp eq ptr %3, %5
  br i1 %.not7.i, label %_ZN7testing8internal7CountIfISt6vectorIPNS_8TestInfoESaIS4_EEPFbPKS3_EEEiRKT_T0_.exit, label %.lr.ph.i

.lr.ph.i:                                         ; preds = %1, %_ZN7testing9TestSuite10TestPassedEPKNS_8TestInfoE.exit
  %6 = phi ptr [ %15, %_ZN7testing9TestSuite10TestPassedEPKNS_8TestInfoE.exit ], [ %5, %1 ]
  %.09.i = phi i32 [ %spec.select.i, %_ZN7testing9TestSuite10TestPassedEPKNS_8TestInfoE.exit ], [ 0, %1 ]
  %.sroa.04.08.i = phi ptr [ %17, %_ZN7testing9TestSuite10TestPassedEPKNS_8TestInfoE.exit ], [ %3, %1 ]
  %7 = load ptr, ptr %.sroa.04.08.i, align 8, !tbaa !792
  %8 = getelementptr inbounds nuw i8, ptr %7, i64 128
  %9 = load i8, ptr %8, align 8, !tbaa !793, !range !16, !noundef !17
  %10 = trunc nuw i8 %9 to i1
  br i1 %10, label %11, label %_ZN7testing9TestSuite10TestPassedEPKNS_8TestInfoE.exit

11:                                               ; preds = %.lr.ph.i
  %12 = getelementptr inbounds nuw i8, ptr %7, i64 144
  %13 = tail call noundef zeroext i1 @_ZNK7testing10TestResult6PassedEv(ptr noundef nonnull align 8 dereferenceable(128) %12)
  %14 = zext i1 %13 to i32
  %.pre = load ptr, ptr %4, align 8, !tbaa !791
  br label %_ZN7testing9TestSuite10TestPassedEPKNS_8TestInfoE.exit

_ZN7testing9TestSuite10TestPassedEPKNS_8TestInfoE.exit: ; preds = %.lr.ph.i, %11
  %15 = phi ptr [ %6, %.lr.ph.i ], [ %.pre, %11 ]
  %16 = phi i32 [ 0, %.lr.ph.i ], [ %14, %11 ]
  %spec.select.i = add nuw nsw i32 %16, %.09.i
  %17 = getelementptr inbounds nuw i8, ptr %.sroa.04.08.i, i64 8
  %.not.i = icmp eq ptr %17, %15
  br i1 %.not.i, label %_ZN7testing8internal7CountIfISt6vectorIPNS_8TestInfoESaIS4_EEPFbPKS3_EEEiRKT_T0_.exit, label %.lr.ph.i, !llvm.loop !798

_ZN7testing8internal7CountIfISt6vectorIPNS_8TestInfoESaIS4_EEPFbPKS3_EEEiRKT_T0_.exit: ; preds = %_ZN7testing9TestSuite10TestPassedEPKNS_8TestInfoE.exit, %1
  %.0.lcssa.i = phi i32 [ 0, %1 ], [ %spec.select.i, %_ZN7testing9TestSuite10TestPassedEPKNS_8TestInfoE.exit ]
  ret i32 %.0.lcssa.i
}